; Function Attrs: mustprogress uwtable
define hidden noundef zeroext i1 @_ZNK7nanogui6Screen24tooltip_fade_in_progressEv(ptr noundef nonnull align 8 dereferenceable(384) %0) local_unnamed_addr #3 align 2 {
  %2 = tail call double @glfwGetTime()
  %3 = getelementptr inbounds i8, ptr %0, i64 280
  %4 = load double, ptr %3, align 8
  %5 = fsub double %2, %4
  %6 = fcmp olt double %5, 2.500000e-01
  %7 = fcmp ogt double %5, 1.250000e+00
  %or.cond = or i1 %6, %7
  br i1 %or.cond, label %15, label %8

8:                                                ; preds = %1
  %9 = getelementptr inbounds i8, ptr %0, i64 260
  %10 = tail call noundef ptr @_ZNK7nanogui6Widget11find_widgetERKNS_5ArrayIiLm2EEE(ptr noundef nonnull align 8 dereferenceable(140) %0, ptr noundef nonnull align 4 dereferenceable(8) %9)
  %.not = icmp eq ptr %10, null
  br i1 %.not, label %15, label %11

11:                                               ; preds = %8
  %12 = getelementptr inbounds i8, ptr %10, i64 96
  %13 = tail call noundef zeroext i1 @_ZNKSt7__cxx1112basic_stringIcSt11char_traitsIcESaIcEE5emptyEv(ptr noundef nonnull align 8 dereferenceable(32) %12) #30
  %14 = xor i1 %13, true
  br label %15

15:                                               ; preds = %8, %11, %1
  %.0 = phi i1 [ false, %1 ], [ false, %8 ], [ %14, %11 ]
  ret i1 %.0
}